target datalayout = "e-m:e-p270:32:32-p271:32:32-p272:64:64-i64:64-i128:128-f80:128-n8:16:32:64-S128"
target triple = "x86_64-pc-linux-gnu"

%struct.Node = type { i16, i16, i16, i16, i32 }

; Function Attrs: nounwind uwtable
define internal void @get_tree_codes(ptr noundef %0, ptr noundef %1, ptr noundef %2, ptr noundef %3, i32 noundef %4, i32 noundef %5, i32 noundef %6, ptr noundef %7) #1 {
  %9 = alloca ptr, align 8
  %10 = alloca ptr, align 8
  %11 = alloca ptr, align 8
  %12 = alloca ptr, align 8
  %13 = alloca i32, align 4
  %14 = alloca i32, align 4
  %15 = alloca i32, align 4
  %16 = alloca ptr, align 8
  %17 = alloca i32, align 4
  store ptr %0, ptr %9, align 8, !tbaa !34
  store ptr %1, ptr %10, align 8, !tbaa !95
  store ptr %2, ptr %11, align 8, !tbaa !49
  store ptr %3, ptr %12, align 8, !tbaa !96
  store i32 %4, ptr %13, align 4, !tbaa !41
  store i32 %5, ptr %14, align 4, !tbaa !41
  store i32 %6, ptr %15, align 4, !tbaa !41
  store ptr %7, ptr %16, align 8, !tbaa !34
  call void @llvm.lifetime.start.p0(i64 4, ptr %17) #8
  %18 = load ptr, ptr %12, align 8, !tbaa !96
  %19 = load i32, ptr %13, align 4, !tbaa !41
  %20 = sext i32 %19 to i64
  %21 = getelementptr inbounds %struct.Node, ptr %18, i64 %20
  %22 = getelementptr inbounds nuw %struct.Node, ptr %21, i32 0, i32 0
  %23 = load i16, ptr %22, align 4, !tbaa !86
  %24 = sext i16 %23 to i32
  store i32 %24, ptr %17, align 4, !tbaa !41
  %25 = load i32, ptr %17, align 4, !tbaa !41
  %26 = icmp ne i32 %25, -1
  br i1 %26, label %27, label %75

27:                                               ; preds = %8
  %28 = load i32, ptr %14, align 4, !tbaa !41
  %29 = xor i32 %28, -1
  %30 = zext i32 %29 to i64
  %31 = load i32, ptr %15, align 4, !tbaa !41
  %32 = icmp sgt i32 %31, 1
  br i1 %32, label %33, label %35

33:                                               ; preds = %27
  %34 = load i32, ptr %15, align 4, !tbaa !41
  br label %36

35:                                               ; preds = %27
  br label %36

36:                                               ; preds = %35, %33
  %37 = phi i32 [ %34, %33 ], [ 1, %35 ]
  %38 = zext i32 %37 to i64
  %39 = shl i64 1, %38
  %40 = sub i64 %39, 1
  %41 = and i64 %30, %40
  %42 = trunc i64 %41 to i32
  %43 = load ptr, ptr %9, align 8, !tbaa !34
  %44 = load ptr, ptr %16, align 8, !tbaa !34
  %45 = load i32, ptr %44, align 4, !tbaa !41
  %46 = sext i32 %45 to i64
  %47 = getelementptr inbounds i32, ptr %43, i64 %46
  store i32 %42, ptr %47, align 4, !tbaa !41
  %48 = load i32, ptr %15, align 4, !tbaa !41
  %49 = icmp sgt i32 %48, 1
  br i1 %49, label %50, label %52

50:                                               ; preds = %36
  %51 = load i32, ptr %15, align 4, !tbaa !41
  br label %53

52:                                               ; preds = %36
  br label %53

53:                                               ; preds = %52, %50
  %54 = phi i32 [ %51, %50 ], [ 1, %52 ]
  %55 = trunc i32 %54 to i16
  %56 = load ptr, ptr %10, align 8, !tbaa !95
  %57 = load ptr, ptr %16, align 8, !tbaa !34
  %58 = load i32, ptr %57, align 4, !tbaa !41
  %59 = sext i32 %58 to i64
  %60 = getelementptr inbounds i16, ptr %56, i64 %59
  store i16 %55, ptr %60, align 2, !tbaa !98
  %61 = load i32, ptr %17, align 4, !tbaa !41
  %62 = load i32, ptr %15, align 4, !tbaa !41
  %63 = icmp eq i32 %62, 0
  %64 = zext i1 %63 to i32
  %65 = add nsw i32 %61, %64
  %66 = trunc i32 %65 to i8
  %67 = load ptr, ptr %11, align 8, !tbaa !49
  %68 = load ptr, ptr %16, align 8, !tbaa !34
  %69 = load i32, ptr %68, align 4, !tbaa !41
  %70 = sext i32 %69 to i64
  %71 = getelementptr inbounds i8, ptr %67, i64 %70
  store i8 %66, ptr %71, align 1, !tbaa !40
  %72 = load ptr, ptr %16, align 8, !tbaa !34
  %73 = load i32, ptr %72, align 4, !tbaa !41
  %74 = add nsw i32 %73, 1
  store i32 %74, ptr %72, align 4, !tbaa !41
  br label %110

75:                                               ; preds = %8
  %76 = load i32, ptr %14, align 4, !tbaa !41
  %77 = shl i32 %76, 1
  store i32 %77, ptr %14, align 4, !tbaa !41
  %78 = load i32, ptr %15, align 4, !tbaa !41
  %79 = add nsw i32 %78, 1
  store i32 %79, ptr %15, align 4, !tbaa !41
  %80 = load ptr, ptr %9, align 8, !tbaa !34
  %81 = load ptr, ptr %10, align 8, !tbaa !95
  %82 = load ptr, ptr %11, align 8, !tbaa !49
  %83 = load ptr, ptr %12, align 8, !tbaa !96
  %84 = load ptr, ptr %12, align 8, !tbaa !96
  %85 = load i32, ptr %13, align 4, !tbaa !41
  %86 = sext i32 %85 to i64
  %87 = getelementptr inbounds %struct.Node, ptr %84, i64 %86
  %88 = getelementptr inbounds nuw %struct.Node, ptr %87, i32 0, i32 2
  %89 = load i16, ptr %88, align 4, !tbaa !88
  %90 = sext i16 %89 to i32
  %91 = load i32, ptr %14, align 4, !tbaa !41
  %92 = load i32, ptr %15, align 4, !tbaa !41
  %93 = load ptr, ptr %16, align 8, !tbaa !34
  call void @get_tree_codes(ptr noundef %80, ptr noundef %81, ptr noundef %82, ptr noundef %83, i32 noundef %90, i32 noundef %91, i32 noundef %92, ptr noundef %93)
  %94 = load i32, ptr %14, align 4, !tbaa !41
  %95 = or i32 %94, 1
  store i32 %95, ptr %14, align 4, !tbaa !41
  %96 = load ptr, ptr %9, align 8, !tbaa !34
  %97 = load ptr, ptr %10, align 8, !tbaa !95
  %98 = load ptr, ptr %11, align 8, !tbaa !49
  %99 = load ptr, ptr %12, align 8, !tbaa !96
  %100 = load ptr, ptr %12, align 8, !tbaa !96
  %101 = load i32, ptr %13, align 4, !tbaa !41
  %102 = sext i32 %101 to i64
  %103 = getelementptr inbounds %struct.Node, ptr %100, i64 %102
  %104 = getelementptr inbounds nuw %struct.Node, ptr %103, i32 0, i32 3
  %105 = load i16, ptr %104, align 2, !tbaa !89
  %106 = sext i16 %105 to i32
  %107 = load i32, ptr %14, align 4, !tbaa !41
  %108 = load i32, ptr %15, align 4, !tbaa !41
  %109 = load ptr, ptr %16, align 8, !tbaa !34
  call void @get_tree_codes(ptr noundef %96, ptr noundef %97, ptr noundef %98, ptr noundef %99, i32 noundef %106, i32 noundef %107, i32 noundef %108, ptr noundef %109)
  br label %110

110:                                              ; preds = %75, %53
  call void @llvm.lifetime.end.p0(i64 4, ptr %17) #8
  ret void
}