; Function Attrs: nofree nosync nounwind memory(argmem: readwrite) uwtable
define internal fastcc void @get_tree_codes(ptr noundef nonnull writeonly captures(none) %0, ptr noundef nonnull writeonly captures(none) %1, ptr noundef nonnull writeonly captures(none) %2, ptr noundef nonnull readonly captures(none) %3, i32 noundef range(i32 -2147483648, 2147483647) %4, i32 noundef %5, i32 noundef %6, ptr noundef nonnull captures(none) %7) unnamed_addr #5 {
  %9 = sext i32 %4 to i64
  %10 = getelementptr inbounds %struct.Node, ptr %3, i64 %9
  %11 = load i16, ptr %10, align 4, !tbaa !72
  %.not44 = icmp eq i16 %11, -1
  br i1 %.not44, label %tailrecurse, label %tailrecurse._crit_edge

tailrecurse._crit_edge:                           ; preds = %tailrecurse, %8
  %.tr41.lcssa = phi i32 [ %5, %8 ], [ %36, %tailrecurse ]
  %.tr42.lcssa = phi i32 [ %6, %8 ], [ %32, %tailrecurse ]
  %.lcssa = phi i16 [ %11, %8 ], [ %41, %tailrecurse ]
  %12 = trunc i16 %.lcssa to i8
  %13 = tail call i32 @llvm.smax.i32(i32 %.tr42.lcssa, i32 1)
  %14 = zext nneg i32 %13 to i64
  %notmask = shl nsw i64 -1, %14
  %15 = trunc i64 %notmask to i32
  %.demorgan = or i32 %.tr41.lcssa, %15
  %16 = xor i32 %.demorgan, -1
  %17 = load i32, ptr %7, align 4, !tbaa !38
  %18 = sext i32 %17 to i64
  %19 = getelementptr inbounds i32, ptr %0, i64 %18
  store i32 %16, ptr %19, align 4, !tbaa !38
  %20 = trunc i32 %13 to i16
  %21 = load i32, ptr %7, align 4, !tbaa !38
  %22 = sext i32 %21 to i64
  %23 = getelementptr inbounds i16, ptr %1, i64 %22
  store i16 %20, ptr %23, align 2, !tbaa !79
  %24 = icmp eq i32 %.tr42.lcssa, 0
  %25 = zext i1 %24 to i8
  %26 = add i8 %12, %25
  %27 = getelementptr inbounds i8, ptr %2, i64 %22
  store i8 %26, ptr %27, align 1, !tbaa !31
  %28 = load i32, ptr %7, align 4, !tbaa !38
  %29 = add nsw i32 %28, 1
  store i32 %29, ptr %7, align 4, !tbaa !38
  ret void

tailrecurse:                                      ; preds = %8, %tailrecurse
  %30 = phi ptr [ %40, %tailrecurse ], [ %10, %8 ]
  %.tr4246 = phi i32 [ %32, %tailrecurse ], [ %6, %8 ]
  %.tr4145 = phi i32 [ %36, %tailrecurse ], [ %5, %8 ]
  %31 = shl i32 %.tr4145, 1
  %32 = add nsw i32 %.tr4246, 1
  %33 = getelementptr inbounds nuw i8, ptr %30, i64 4
  %34 = load i16, ptr %33, align 4, !tbaa !74
  %35 = sext i16 %34 to i32
  tail call fastcc void @get_tree_codes(ptr noundef %0, ptr noundef %1, ptr noundef %2, ptr noundef %3, i32 noundef %35, i32 noundef %31, i32 noundef %32, ptr noundef %7)
  %36 = or disjoint i32 %31, 1
  %37 = getelementptr inbounds nuw i8, ptr %30, i64 6
  %38 = load i16, ptr %37, align 2, !tbaa !75
  %39 = sext i16 %38 to i64
  %40 = getelementptr inbounds %struct.Node, ptr %3, i64 %39
  %41 = load i16, ptr %40, align 4, !tbaa !72
  %.not = icmp eq i16 %41, -1
  br i1 %.not, label %tailrecurse, label %tailrecurse._crit_edge
}